target datalayout = "e-m:e-p270:32:32-p271:32:32-p272:64:64-i64:64-i128:128-f80:128-n8:16:32:64-S128"
target triple = "x86_64-pc-linux-gnu"

%struct.ossl_param_st = type { ptr, i32, ptr, i64, i64 }

@verbose = internal global i32 0, align 4
@bio_out = external global ptr, align 8
@.str.103 = private unnamed_addr constant [7 x i8] c" @ %s\0A\00", align 1
@.str.126 = private unnamed_addr constant [5 x i8] c"%s:\0A\00", align 1
@.str.127 = private unnamed_addr constant [5 x i8] c"  %s\00", align 1
@.str.128 = private unnamed_addr constant [14 x i8] c"uninitialised\00", align 1
@.str.129 = private unnamed_addr constant [6 x i8] c"ready\00", align 1
@.str.130 = private unnamed_addr constant [6 x i8] c"error\00", align 1
@.str.131 = private unnamed_addr constant [8 x i8] c"unknown\00", align 1
@.str.132 = private unnamed_addr constant [14 x i8] c"  state = %s\0A\00", align 1
@.str.133 = private unnamed_addr constant [6 x i8] c"state\00", align 1

; Function Attrs: nounwind uwtable
define internal void @display_random(ptr noundef %0, ptr noundef %1) #0 {
  %3 = alloca ptr, align 8
  %4 = alloca ptr, align 8
  %5 = alloca ptr, align 8
  %6 = alloca i64, align 8
  %7 = alloca ptr, align 8
  %8 = alloca ptr, align 8
  %9 = alloca [2 x %struct.ossl_param_st], align 16
  %10 = alloca [1000 x i8], align 16
  store ptr %0, ptr %3, align 8, !tbaa !11
  store ptr %1, ptr %4, align 8, !tbaa !157
  call void @llvm.lifetime.start.p0(i64 8, ptr %5) #7
  call void @llvm.lifetime.start.p0(i64 8, ptr %6) #7
  call void @llvm.lifetime.start.p0(i64 8, ptr %7) #7
  call void @llvm.lifetime.start.p0(i64 8, ptr %8) #7
  call void @llvm.lifetime.start.p0(i64 80, ptr %9) #7
  call void @llvm.memset.p0.i64(ptr align 16 %9, i8 0, i64 80, i1 false)
  call void @llvm.lifetime.start.p0(i64 1000, ptr %10) #7
  %11 = load ptr, ptr @bio_out, align 8, !tbaa !13
  %12 = load ptr, ptr %3, align 8, !tbaa !11
  %13 = call i32 (ptr, ptr, ...) @BIO_printf(ptr noundef %11, ptr noundef @.str.126, ptr noundef %12)
  %14 = load ptr, ptr %4, align 8, !tbaa !157
  %15 = icmp ne ptr %14, null
  br i1 %15, label %16, label %115

16:                                               ; preds = %2
  %17 = load ptr, ptr %4, align 8, !tbaa !157
  %18 = call ptr @EVP_RAND_CTX_get0_rand(ptr noundef %17)
  store ptr %18, ptr %5, align 8, !tbaa !99
  %19 = load ptr, ptr @bio_out, align 8, !tbaa !13
  %20 = load ptr, ptr %5, align 8, !tbaa !99
  %21 = call ptr @EVP_RAND_get0_name(ptr noundef %20)
  %22 = call i32 (ptr, ptr, ...) @BIO_printf(ptr noundef %19, ptr noundef @.str.127, ptr noundef %21)
  %23 = load ptr, ptr @bio_out, align 8, !tbaa !13
  %24 = load ptr, ptr %5, align 8, !tbaa !99
  %25 = call ptr @EVP_RAND_get0_provider(ptr noundef %24)
  %26 = call ptr @OSSL_PROVIDER_get0_name(ptr noundef %25)
  %27 = call i32 (ptr, ptr, ...) @BIO_printf(ptr noundef %23, ptr noundef @.str.103, ptr noundef %26)
  %28 = load ptr, ptr %4, align 8, !tbaa !157
  %29 = call i32 @EVP_RAND_get_state(ptr noundef %28)
  switch i32 %29, label %33 [
    i32 0, label %30
    i32 1, label %31
    i32 2, label %32
  ]

30:                                               ; preds = %16
  store ptr @.str.128, ptr %7, align 8, !tbaa !11
  br label %34

31:                                               ; preds = %16
  store ptr @.str.129, ptr %7, align 8, !tbaa !11
  br label %34

32:                                               ; preds = %16
  store ptr @.str.130, ptr %7, align 8, !tbaa !11
  br label %34

33:                                               ; preds = %16
  store ptr @.str.131, ptr %7, align 8, !tbaa !11
  br label %34

34:                                               ; preds = %33, %32, %31, %30
  %35 = load ptr, ptr @bio_out, align 8, !tbaa !13
  %36 = load ptr, ptr %7, align 8, !tbaa !11
  %37 = call i32 (ptr, ptr, ...) @BIO_printf(ptr noundef %35, ptr noundef @.str.132, ptr noundef %36)
  %38 = load ptr, ptr %5, align 8, !tbaa !99
  %39 = call ptr @EVP_RAND_gettable_ctx_params(ptr noundef %38)
  store ptr %39, ptr %8, align 8, !tbaa !159
  %40 = load ptr, ptr %8, align 8, !tbaa !159
  %41 = icmp ne ptr %40, null
  br i1 %41, label %42, label %114

42:                                               ; preds = %34
  br label %43

43:                                               ; preds = %110, %42
  %44 = load ptr, ptr %8, align 8, !tbaa !159
  %45 = getelementptr inbounds nuw %struct.ossl_param_st, ptr %44, i32 0, i32 0
  %46 = load ptr, ptr %45, align 8, !tbaa !161
  %47 = icmp ne ptr %46, null
  br i1 %47, label %48, label %113

48:                                               ; preds = %43
  %49 = load ptr, ptr %8, align 8, !tbaa !159
  %50 = getelementptr inbounds nuw %struct.ossl_param_st, ptr %49, i32 0, i32 0
  %51 = load ptr, ptr %50, align 8, !tbaa !161
  %52 = call i32 @OPENSSL_strcasecmp(ptr noundef %51, ptr noundef @.str.133)
  %53 = icmp eq i32 %52, 0
  br i1 %53, label %54, label %55

54:                                               ; preds = %48
  br label %110

55:                                               ; preds = %48
  %56 = load ptr, ptr %8, align 8, !tbaa !159
  %57 = getelementptr inbounds nuw %struct.ossl_param_st, ptr %56, i32 0, i32 1
  %58 = load i32, ptr %57, align 8, !tbaa !163
  %59 = icmp ne i32 %58, 4
  br i1 %59, label %60, label %69

60:                                               ; preds = %55
  %61 = load ptr, ptr %8, align 8, !tbaa !159
  %62 = getelementptr inbounds nuw %struct.ossl_param_st, ptr %61, i32 0, i32 1
  %63 = load i32, ptr %62, align 8, !tbaa !163
  %64 = icmp ne i32 %63, 6
  br i1 %64, label %65, label %69

65:                                               ; preds = %60
  %66 = load i32, ptr @verbose, align 4, !tbaa !4
  %67 = icmp ne i32 %66, 0
  br i1 %67, label %69, label %68

68:                                               ; preds = %65
  br label %110

69:                                               ; preds = %65, %60, %55
  %70 = load ptr, ptr %8, align 8, !tbaa !159
  %71 = getelementptr inbounds nuw %struct.ossl_param_st, ptr %70, i32 0, i32 0
  %72 = load ptr, ptr %71, align 8, !tbaa !161
  %73 = getelementptr inbounds [2 x %struct.ossl_param_st], ptr %9, i64 0, i64 0
  %74 = getelementptr inbounds nuw %struct.ossl_param_st, ptr %73, i32 0, i32 0
  store ptr %72, ptr %74, align 16, !tbaa !161
  %75 = load ptr, ptr %8, align 8, !tbaa !159
  %76 = getelementptr inbounds nuw %struct.ossl_param_st, ptr %75, i32 0, i32 1
  %77 = load i32, ptr %76, align 8, !tbaa !163
  %78 = getelementptr inbounds [2 x %struct.ossl_param_st], ptr %9, i64 0, i64 0
  %79 = getelementptr inbounds nuw %struct.ossl_param_st, ptr %78, i32 0, i32 1
  store i32 %77, ptr %79, align 8, !tbaa !163
  %80 = load ptr, ptr %8, align 8, !tbaa !159
  %81 = getelementptr inbounds nuw %struct.ossl_param_st, ptr %80, i32 0, i32 1
  %82 = load i32, ptr %81, align 8, !tbaa !163
  %83 = icmp eq i32 %82, 2
  br i1 %83, label %89, label %84

84:                                               ; preds = %69
  %85 = load ptr, ptr %8, align 8, !tbaa !159
  %86 = getelementptr inbounds nuw %struct.ossl_param_st, ptr %85, i32 0, i32 1
  %87 = load i32, ptr %86, align 8, !tbaa !163
  %88 = icmp eq i32 %87, 1
  br i1 %88, label %89, label %94

89:                                               ; preds = %84, %69
  %90 = getelementptr inbounds [2 x %struct.ossl_param_st], ptr %9, i64 0, i64 0
  %91 = getelementptr inbounds nuw %struct.ossl_param_st, ptr %90, i32 0, i32 2
  store ptr %6, ptr %91, align 16, !tbaa !164
  %92 = getelementptr inbounds [2 x %struct.ossl_param_st], ptr %9, i64 0, i64 0
  %93 = getelementptr inbounds nuw %struct.ossl_param_st, ptr %92, i32 0, i32 3
  store i64 8, ptr %93, align 8, !tbaa !165
  br label %100

94:                                               ; preds = %84
  %95 = getelementptr inbounds [1000 x i8], ptr %10, i64 0, i64 0
  %96 = getelementptr inbounds [2 x %struct.ossl_param_st], ptr %9, i64 0, i64 0
  %97 = getelementptr inbounds nuw %struct.ossl_param_st, ptr %96, i32 0, i32 2
  store ptr %95, ptr %97, align 16, !tbaa !164
  %98 = getelementptr inbounds [2 x %struct.ossl_param_st], ptr %9, i64 0, i64 0
  %99 = getelementptr inbounds nuw %struct.ossl_param_st, ptr %98, i32 0, i32 3
  store i64 1000, ptr %99, align 8, !tbaa !165
  br label %100

100:                                              ; preds = %94, %89
  %101 = getelementptr inbounds [2 x %struct.ossl_param_st], ptr %9, i64 0, i64 0
  %102 = getelementptr inbounds nuw %struct.ossl_param_st, ptr %101, i32 0, i32 4
  store i64 0, ptr %102, align 16, !tbaa !166
  %103 = load ptr, ptr %4, align 8, !tbaa !157
  %104 = getelementptr inbounds [2 x %struct.ossl_param_st], ptr %9, i64 0, i64 0
  %105 = call i32 @EVP_RAND_CTX_get_params(ptr noundef %103, ptr noundef %104)
  %106 = icmp ne i32 %105, 0
  br i1 %106, label %107, label %109

107:                                              ; preds = %100
  %108 = getelementptr inbounds [2 x %struct.ossl_param_st], ptr %9, i64 0, i64 0
  call void @print_param_value(ptr noundef %108, i32 noundef 2)
  br label %109

109:                                              ; preds = %107, %100
  br label %110

110:                                              ; preds = %109, %68, %54
  %111 = load ptr, ptr %8, align 8, !tbaa !159
  %112 = getelementptr inbounds nuw %struct.ossl_param_st, ptr %111, i32 1
  store ptr %112, ptr %8, align 8, !tbaa !159
  br label %43, !llvm.loop !167

113:                                              ; preds = %43
  br label %114

114:                                              ; preds = %113, %34
  br label %115

115:                                              ; preds = %114, %2
  call void @llvm.lifetime.end.p0(i64 1000, ptr %10) #7
  call void @llvm.lifetime.end.p0(i64 80, ptr %9) #7
  call void @llvm.lifetime.end.p0(i64 8, ptr %8) #7
  call void @llvm.lifetime.end.p0(i64 8, ptr %7) #7
  call void @llvm.lifetime.end.p0(i64 8, ptr %6) #7
  call void @llvm.lifetime.end.p0(i64 8, ptr %5) #7
  ret void
}