; Function Attrs: nounwind uwtable
define internal fastcc void @display_random(ptr noundef %0, ptr noundef %1) unnamed_addr #0 {
  %3 = alloca i64, align 8
  %4 = alloca [2 x %struct.ossl_param_st], align 16
  %5 = alloca [1000 x i8], align 16
  call void @llvm.lifetime.start.p0(i64 8, ptr nonnull %3) #6
  call void @llvm.lifetime.start.p0(i64 80, ptr nonnull %4) #6
  call void @llvm.memset.p0.i64(ptr noundef nonnull align 16 dereferenceable(80) %4, i8 0, i64 80, i1 false)
  call void @llvm.lifetime.start.p0(i64 1000, ptr nonnull %5) #6
  %6 = load ptr, ptr @bio_out, align 8, !tbaa !4
  %7 = tail call i32 (ptr, ptr, ...) @BIO_printf(ptr noundef %6, ptr noundef nonnull @.str.126, ptr noundef %0) #6
  %.not = icmp eq ptr %1, null
  br i1 %.not, label %.loopexit, label %8

8:                                                ; preds = %2
  %9 = tail call ptr @EVP_RAND_CTX_get0_rand(ptr noundef nonnull %1) #6
  %10 = load ptr, ptr @bio_out, align 8, !tbaa !4
  %11 = tail call ptr @EVP_RAND_get0_name(ptr noundef %9) #6
  %12 = tail call i32 (ptr, ptr, ...) @BIO_printf(ptr noundef %10, ptr noundef nonnull @.str.127, ptr noundef %11) #6
  %13 = load ptr, ptr @bio_out, align 8, !tbaa !4
  %14 = tail call ptr @EVP_RAND_get0_provider(ptr noundef %9) #6
  %15 = tail call ptr @OSSL_PROVIDER_get0_name(ptr noundef %14) #6
  %16 = tail call i32 (ptr, ptr, ...) @BIO_printf(ptr noundef %13, ptr noundef nonnull @.str.103, ptr noundef %15) #6
  %17 = tail call i32 @EVP_RAND_get_state(ptr noundef nonnull %1) #6
  %18 = icmp ult i32 %17, 3
  br i1 %18, label %switch.lookup, label %20

switch.lookup:                                    ; preds = %8
  %19 = zext nneg i32 %17 to i64
  %switch.gep = getelementptr inbounds nuw [3 x ptr], ptr @switch.table.display_random, i64 0, i64 %19
  %switch.load = load ptr, ptr %switch.gep, align 8
  br label %20

20:                                               ; preds = %8, %switch.lookup
  %.020 = phi ptr [ %switch.load, %switch.lookup ], [ @.str.131, %8 ]
  %21 = load ptr, ptr @bio_out, align 8, !tbaa !4
  %22 = tail call i32 (ptr, ptr, ...) @BIO_printf(ptr noundef %21, ptr noundef nonnull @.str.132, ptr noundef nonnull %.020) #6
  %23 = tail call ptr @EVP_RAND_gettable_ctx_params(ptr noundef %9) #6
  %.not26 = icmp eq ptr %23, null
  br i1 %.not26, label %.loopexit, label %.preheader

.preheader:                                       ; preds = %20
  %24 = load ptr, ptr %23, align 8, !tbaa !78
  %.not2730 = icmp eq ptr %24, null
  br i1 %.not2730, label %.loopexit, label %.lr.ph

.lr.ph:                                           ; preds = %.preheader
  %25 = getelementptr inbounds nuw i8, ptr %4, i64 8
  %26 = getelementptr inbounds nuw i8, ptr %4, i64 16
  %27 = getelementptr inbounds nuw i8, ptr %4, i64 24
  %28 = getelementptr inbounds nuw i8, ptr %4, i64 32
  br label %29

29:                                               ; preds = %.lr.ph, %45
  %30 = phi ptr [ %24, %.lr.ph ], [ %47, %45 ]
  %.031 = phi ptr [ %23, %.lr.ph ], [ %46, %45 ]
  %31 = call i32 @OPENSSL_strcasecmp(ptr noundef nonnull %30, ptr noundef nonnull @.str.133) #6
  %32 = icmp eq i32 %31, 0
  br i1 %32, label %45, label %33

33:                                               ; preds = %29
  %34 = getelementptr inbounds nuw i8, ptr %.031, i64 8
  %35 = load i32, ptr %34, align 8, !tbaa !80
  %.not28 = icmp eq i32 %35, 4
  br i1 %.not28, label %.thread, label %37

.thread:                                          ; preds = %33
  %36 = load ptr, ptr %.031, align 8, !tbaa !78
  store ptr %36, ptr %4, align 16, !tbaa !78
  store i32 %35, ptr %25, align 8, !tbaa !80
  br label %41

37:                                               ; preds = %33
  %38 = icmp eq i32 %35, 6
  %.b = load i1, ptr @verbose, align 4
  %or.cond = select i1 %38, i1 true, i1 %.b
  br i1 %or.cond, label %39, label %45

39:                                               ; preds = %37
  %40 = load ptr, ptr %.031, align 8, !tbaa !78
  store ptr %40, ptr %4, align 16, !tbaa !78
  store i32 %35, ptr %25, align 8, !tbaa !80
  %.off = add i32 %35, -1
  %switch = icmp ult i32 %.off, 2
  br i1 %switch, label %42, label %41

41:                                               ; preds = %.thread, %39
  br label %42

42:                                               ; preds = %39, %41
  %storemerge32 = phi ptr [ %5, %41 ], [ %3, %39 ]
  %storemerge = phi i64 [ 1000, %41 ], [ 8, %39 ]
  store ptr %storemerge32, ptr %26, align 16, !tbaa !81
  store i64 %storemerge, ptr %27, align 8, !tbaa !82
  store i64 0, ptr %28, align 16, !tbaa !83
  %43 = call i32 @EVP_RAND_CTX_get_params(ptr noundef nonnull %1, ptr noundef nonnull %4) #6
  %.not29 = icmp eq i32 %43, 0
  br i1 %.not29, label %45, label %44

44:                                               ; preds = %42
  call void @print_param_value(ptr noundef nonnull %4, i32 noundef 2) #6
  br label %45

45:                                               ; preds = %42, %44, %37, %29
  %46 = getelementptr inbounds nuw i8, ptr %.031, i64 40
  %47 = load ptr, ptr %46, align 8, !tbaa !78
  %.not27 = icmp eq ptr %47, null
  br i1 %.not27, label %.loopexit, label %29, !llvm.loop !84

.loopexit:                                        ; preds = %45, %.preheader, %20, %2
  call void @llvm.lifetime.end.p0(i64 1000, ptr nonnull %5) #6
  call void @llvm.lifetime.end.p0(i64 80, ptr nonnull %4) #6
  call void @llvm.lifetime.end.p0(i64 8, ptr nonnull %3) #6
  ret void
}